Certificate:
    Data:
        Version: 3 (0x2)
        Serial Number:
            dc:b3:5e:f5:90:81:b2:7a
        Signature Algorithm: sha1WithRSAEncryption
        Issuer: C=DE, ST=Berlin, O=Teagle, CN=Teagle/emailAddress=konrad.campowsky@fokus.fraunhofer.de
        Validity
            Not Before: Aug 22 08:55:29 2011 GMT
            Not After : Aug 21 08:55:29 2014 GMT
        Subject: C=DE, ST=Berlin, O=Teagle, CN=Teagle/emailAddress=konrad.campowsky@fokus.fraunhofer.de
        Subject Public Key Info:
            Public Key Algorithm: rsaEncryption
                Public-Key: (1024 bit)
                Modulus:
                    00:ae:99:66:ea:89:c0:1d:cf:4f:65:a6:ef:33:94:
                    bd:30:4a:cb:50:57:c3:11:b2:e4:df:58:1c:94:e1:
                    1b:b6:8e:91:3e:b6:13:50:06:c0:14:c3:2a:87:50:
                    5e:49:58:7c:a7:e7:cb:a1:90:c5:e3:0b:59:5e:8d:
                    dd:3c:b7:5f:27:e8:89:93:e1:37:e2:de:29:5d:50:
                    e2:68:a1:ab:90:b7:d6:7b:ba:24:ac:01:50:1d:1a:
                    71:89:29:b4:51:de:31:c0:5a:39:9d:0c:60:e4:14:
                    98:b3:8c:aa:7c:0a:c0:3e:df:e3:1a:19:6f:d6:8f:
                    b5:3c:69:06:6f:33:83:20:69
                Exponent: 65537 (0x10001)
        X509v3 extensions:
            X509v3 Subject Key Identifier: 
                1A:D6:BA:8D:DF:20:B2:00:AD:20:3E:C6:0F:93:D9:B0:01:7D:7E:42
            X509v3 Authority Key Identifier: 
                keyid:1A:D6:BA:8D:DF:20:B2:00:AD:20:3E:C6:0F:93:D9:B0:01:7D:7E:42

            X509v3 Basic Constraints: 
                CA:TRUE
    Signature Algorithm: sha1WithRSAEncryption
        98:e0:8d:dd:08:d3:02:28:82:96:f7:1b:cf:b2:9a:f8:f8:86:
        84:d5:8e:5d:03:fa:a1:ac:26:49:45:46:1a:06:c2:f5:47:aa:
        7d:56:f4:77:7b:02:95:f5:04:10:74:ef:56:14:ae:5b:76:fc:
        61:c2:d4:48:97:51:a4:86:bb:f8:0d:16:0a:61:98:c7:09:c5:
        6b:54:87:33:ac:3a:62:ce:05:11:54:4e:85:e3:d8:b6:3e:07:
        e2:e8:2e:b7:b1:ed:6f:06:28:d8:1d:03:5a:ed:20:57:c5:8a:
        c7:58:56:87:40:04:79:ac:3d:67:bd:f4:0d:d8:66:ac:2f:46:
        fa:44
-----BEGIN CERTIFICATE-----
MIICuDCCAiGgAwIBAgIJANyzXvWQgbJ6MA0GCSqGSIb3DQEBBQUAMHUxCzAJBgNV
BAYTAkRFMQ8wDQYDVQQIDAZCZXJsaW4xDzANBgNVBAoMBlRlYWdsZTEPMA0GA1UE
AwwGVGVhZ2xlMTMwMQYJKoZIhvcNAQkBFiRrb25yYWQuY2FtcG93c2t5QGZva3Vz
LmZyYXVuaG9mZXIuZGUwHhcNMTEwODIyMDg1NTI5WhcNMTQwODIxMDg1NTI5WjB1
MQswCQYDVQQGEwJERTEPMA0GA1UECAwGQmVybGluMQ8wDQYDVQQKDAZUZWFnbGUx
DzANBgNVBAMMBlRlYWdsZTEzMDEGCSqGSIb3DQEJARYka29ucmFkLmNhbXBvd3Nr
eUBmb2t1cy5mcmF1bmhvZmVyLmRlMIGfMA0GCSqGSIb3DQEBAQUAA4GNADCBiQKB
gQCumWbqicAdz09lpu8zlL0wSstQV8MRsuTfWByU4Ru2jpE+thNQBsAUwyqHUF5J
WHyn58uhkMXjC1lejd08t18n6ImT4Tfi3ildUOJooauQt9Z7uiSsAVAdGnGJKbRR
3jHAWjmdDGDkFJizjKp8CsA+3+MaGW/Wj7U8aQZvM4MgaQIDAQABo1AwTjAdBgNV
HQ4EFgQUGta6jd8gsgCtID7GD5PZsAF9fkIwHwYDVR0jBBgwFoAUGta6jd8gsgCt
ID7GD5PZsAF9fkIwDAYDVR0TBAUwAwEB/zANBgkqhkiG9w0BAQUFAAOBgQCY4I3d
CNMCKIKW9xvPspr4+IaE1Y5dA/qhrCZJRUYaBsL1R6p9VvR3ewKV9QQQdO9WFK5b
dvxhwtRIl1Gkhrv4DRYKYZjHCcVrVIczrDpizgURVE6F49i2Pgfi6C63se1vBijY
HQNa7SBXxYrHWFaHQAR5rD1nvfQN2GasL0b6RA==
-----END CERTIFICATE-----
