Certificate:
    Data:
        Version: 3 (0x2)
        Serial Number:
            dc:b3:5e:f5:90:81:b2:7c
        Signature Algorithm: sha1WithRSAEncryption
        Issuer: C=DE, ST=Berlin, O=Teagle, CN=Teagle/emailAddress=konrad.campowsky@fokus.fraunhofer.de
        Validity
            Not Before: Aug 23 21:15:12 2011 GMT
            Not After : Aug 22 21:15:12 2012 GMT
        Subject: C=DE, ST=Berlin, O=Teagle, OU=core, CN=kca/emailAddress=konrad.campowsky@fokus.fraunhofer.de
        Subject Public Key Info:
            Public Key Algorithm: rsaEncryption
                Public-Key: (1024 bit)
                Modulus:
                    00:a4:2e:db:30:44:0b:65:f7:7c:4a:5b:93:eb:46:
                    9e:3d:db:38:36:38:0c:96:c7:d2:6c:2a:3d:42:35:
                    8b:22:20:c0:d5:33:a1:91:7e:e0:2d:c4:ce:20:93:
                    30:34:80:b5:29:1f:20:bb:5a:98:c1:63:b9:78:1b:
                    15:9e:ce:4a:4e:3a:a0:9e:08:17:1d:36:2e:7e:39:
                    ea:34:50:d7:0a:b7:3d:6a:04:73:15:ec:56:49:fa:
                    5b:4b:3d:20:8b:9e:02:71:dd:1e:aa:21:b9:f3:43:
                    76:27:aa:17:8d:eb:8c:b9:a2:eb:71:7d:64:b6:dc:
                    8a:fc:f2:d7:6a:fb:7a:9e:8f
                Exponent: 65537 (0x10001)
        X509v3 extensions:
            X509v3 Basic Constraints: 
                CA:FALSE
            Netscape Comment: 
                OpenSSL Generated Certificate
            X509v3 Subject Key Identifier: 
                4C:10:62:5D:65:44:D6:F4:B5:7B:40:8E:10:33:D5:2E:67:0E:54:D4
            X509v3 Authority Key Identifier: 
                keyid:1A:D6:BA:8D:DF:20:B2:00:AD:20:3E:C6:0F:93:D9:B0:01:7D:7E:42

    Signature Algorithm: sha1WithRSAEncryption
        42:ec:f9:ac:b9:a4:6c:be:61:7c:0b:44:64:c9:49:18:1b:8e:
        bd:85:0a:77:fc:67:a4:3e:53:7a:85:f5:83:bd:10:ce:35:4f:
        d1:ad:35:bf:83:bf:ce:44:15:6c:ff:13:0e:8a:19:e3:4f:30:
        7a:d1:84:d2:e0:87:12:ef:33:08:22:77:46:24:92:12:9a:88:
        9b:09:87:66:33:64:0b:f9:0b:01:d9:65:2d:1c:74:42:3e:4c:
        b6:61:60:68:b1:f3:b2:f3:a1:b3:86:41:82:6f:3c:48:9d:b7:
        f8:06:2e:44:89:46:a2:78:2f:91:74:54:be:59:f6:6f:f3:9a:
        5a:fa
-----BEGIN CERTIFICATE-----
MIIC8DCCAlmgAwIBAgIJANyzXvWQgbJ8MA0GCSqGSIb3DQEBBQUAMHUxCzAJBgNV
BAYTAkRFMQ8wDQYDVQQIDAZCZXJsaW4xDzANBgNVBAoMBlRlYWdsZTEPMA0GA1UE
AwwGVGVhZ2xlMTMwMQYJKoZIhvcNAQkBFiRrb25yYWQuY2FtcG93c2t5QGZva3Vz
LmZyYXVuaG9mZXIuZGUwHhcNMTEwODIzMjExNTEyWhcNMTIwODIyMjExNTEyWjCB
gTELMAkGA1UEBhMCREUxDzANBgNVBAgMBkJlcmxpbjEPMA0GA1UECgwGVGVhZ2xl
MQ0wCwYDVQQLDARjb3JlMQwwCgYDVQQDDANrY2ExMzAxBgkqhkiG9w0BCQEWJGtv
bnJhZC5jYW1wb3dza3lAZm9rdXMuZnJhdW5ob2Zlci5kZTCBnzANBgkqhkiG9w0B
AQEFAAOBjQAwgYkCgYEApC7bMEQLZfd8SluT60aePds4NjgMlsfSbCo9QjWLIiDA
1TOhkX7gLcTOIJMwNIC1KR8gu1qYwWO5eBsVns5KTjqgnggXHTYufjnqNFDXCrc9
agRzFexWSfpbSz0gi54Ccd0eqiG580N2J6oXjeuMuaLrcX1kttyK/PLXavt6no8C
AwEAAaN7MHkwCQYDVR0TBAIwADAsBglghkgBhvhCAQ0EHxYdT3BlblNTTCBHZW5l
cmF0ZWQgQ2VydGlmaWNhdGUwHQYDVR0OBBYEFEwQYl1lRNb0tXtAjhAz1S5nDlTU
MB8GA1UdIwQYMBaAFBrWuo3fILIArSA+xg+T2bABfX5CMA0GCSqGSIb3DQEBBQUA
A4GBAELs+ay5pGy+YXwLRGTJSRgbjr2FCnf8Z6Q+U3qF9YO9EM41T9GtNb+Dv85E
FWz/Ew6KGeNPMHrRhNLghxLvMwgid0YkkhKaiJsJh2YzZAv5CwHZZS0cdEI+TLZh
YGix87LzobOGQYJvPEidt/gGLkSJRqJ4L5F0VL5Z9m/zmlr6
-----END CERTIFICATE-----
