Certificate:
    Data:
        Version: 3 (0x2)
        Serial Number:
            dc:b3:5e:f5:90:81:b2:7b
        Signature Algorithm: sha1WithRSAEncryption
        Issuer: C=DE, ST=Berlin, O=Teagle, CN=Teagle/emailAddress=konrad.campowsky@fokus.fraunhofer.de
        Validity
            Not Before: Aug 22 10:24:36 2011 GMT
            Not After : Aug 21 10:24:36 2012 GMT
        Subject: C=DE, ST=Berlin, O=Fokus, OU=PTM, CN=Frontend/emailAddress=konrad.campowsky@fokus.fraunhofer.de
        Subject Public Key Info:
            Public Key Algorithm: rsaEncryption
                Public-Key: (1024 bit)
                Modulus:
                    00:b6:38:12:b4:7a:44:d7:55:6d:16:c7:71:29:10:
                    27:c2:ad:8e:a3:4c:2e:da:37:00:68:54:3e:e0:59:
                    83:05:51:49:87:eb:92:99:29:64:fe:49:b8:9e:62:
                    08:ad:8a:40:ec:b5:a1:7c:09:b1:77:70:c8:aa:77:
                    f5:a5:8e:ed:57:06:fa:6f:7e:b9:2a:99:fe:5f:07:
                    ff:cd:fa:9e:d1:12:35:a7:27:4b:43:c6:40:bd:38:
                    95:ad:5c:8a:1b:3d:af:86:d0:4c:37:02:fc:e2:fe:
                    04:e8:ff:bd:fe:a4:f6:8d:7f:b0:68:b1:97:20:d0:
                    ab:89:65:f2:9f:16:83:27:31
                Exponent: 65537 (0x10001)
        X509v3 extensions:
            X509v3 Basic Constraints: 
                CA:FALSE
            Netscape Comment: 
                OpenSSL Generated Certificate
            X509v3 Subject Key Identifier: 
                12:0A:01:9E:77:BC:C7:D1:D8:E6:3F:E3:76:D3:AC:9D:3E:8E:17:D4
            X509v3 Authority Key Identifier: 
                keyid:1A:D6:BA:8D:DF:20:B2:00:AD:20:3E:C6:0F:93:D9:B0:01:7D:7E:42

    Signature Algorithm: sha1WithRSAEncryption
        68:ad:94:6d:ec:75:69:2a:26:70:dd:85:a5:a5:f2:18:4e:73:
        27:b6:40:50:f9:b1:d2:66:f8:8b:0b:d7:e5:a5:54:20:97:b0:
        db:38:0f:5a:81:ea:38:2f:97:1d:17:b4:00:ea:c8:6b:b0:a4:
        66:6e:40:36:91:c0:a5:3b:8c:a8:a2:be:7d:ed:83:7b:0f:4c:
        85:98:0c:08:b8:5b:5b:36:62:1c:4c:66:28:a5:c3:4e:b5:f3:
        ee:d4:c1:ad:fe:73:10:16:f8:83:3f:34:c0:20:9c:e2:22:e3:
        f9:da:18:f0:20:85:fc:b5:a9:85:9a:c3:9e:4f:7e:86:85:cc:
        a5:33
-----BEGIN CERTIFICATE-----
MIIC8zCCAlygAwIBAgIJANyzXvWQgbJ7MA0GCSqGSIb3DQEBBQUAMHUxCzAJBgNV
BAYTAkRFMQ8wDQYDVQQIDAZCZXJsaW4xDzANBgNVBAoMBlRlYWdsZTEPMA0GA1UE
AwwGVGVhZ2xlMTMwMQYJKoZIhvcNAQkBFiRrb25yYWQuY2FtcG93c2t5QGZva3Vz
LmZyYXVuaG9mZXIuZGUwHhcNMTEwODIyMTAyNDM2WhcNMTIwODIxMTAyNDM2WjCB
hDELMAkGA1UEBhMCREUxDzANBgNVBAgMBkJlcmxpbjEOMAwGA1UECgwFRm9rdXMx
DDAKBgNVBAsMA1BUTTERMA8GA1UEAwwIRnJvbnRlbmQxMzAxBgkqhkiG9w0BCQEW
JGtvbnJhZC5jYW1wb3dza3lAZm9rdXMuZnJhdW5ob2Zlci5kZTCBnzANBgkqhkiG
9w0BAQEFAAOBjQAwgYkCgYEAtjgStHpE11VtFsdxKRAnwq2Oo0wu2jcAaFQ+4FmD
BVFJh+uSmSlk/km4nmIIrYpA7LWhfAmxd3DIqnf1pY7tVwb6b365Kpn+Xwf/zfqe
0RI1pydLQ8ZAvTiVrVyKGz2vhtBMNwL84v4E6P+9/qT2jX+waLGXINCriWXynxaD
JzECAwEAAaN7MHkwCQYDVR0TBAIwADAsBglghkgBhvhCAQ0EHxYdT3BlblNTTCBH
ZW5lcmF0ZWQgQ2VydGlmaWNhdGUwHQYDVR0OBBYEFBIKAZ53vMfR2OY/43bTrJ0+
jhfUMB8GA1UdIwQYMBaAFBrWuo3fILIArSA+xg+T2bABfX5CMA0GCSqGSIb3DQEB
BQUAA4GBAGitlG3sdWkqJnDdhaWl8hhOcye2QFD5sdJm+IsL1+WlVCCXsNs4D1qB
6jgvlx0XtADqyGuwpGZuQDaRwKU7jKiivn3tg3sPTIWYDAi4W1s2YhxMZiilw061
8+7Uwa3+cxAW+IM/NMAgnOIi4/naGPAghfy1qYWaw55PfoaFzKUz
-----END CERTIFICATE-----
