Certificate:
    Data:
        Version: 3 (0x2)
        Serial Number:
            dc:b3:5e:f5:90:81:b2:7d
        Signature Algorithm: sha1WithRSAEncryption
        Issuer: C=DE, ST=Berlin, O=Teagle, CN=Teagle/emailAddress=konrad.campowsky@fokus.fraunhofer.de
        Validity
            Not Before: Aug 24 18:52:06 2011 GMT
            Not After : Aug 23 18:52:06 2012 GMT
        Subject: C=DE, ST=Berlin, O=Teagle, OU=core, CN=tgw/emailAddress=konrad.campowsky@fokus.fraunhofer.de
        Subject Public Key Info:
            Public Key Algorithm: rsaEncryption
                Public-Key: (1024 bit)
                Modulus:
                    00:af:a2:63:94:89:0c:5f:b7:d1:1e:c4:76:85:ab:
                    aa:c8:a7:de:e1:33:b6:bf:03:01:4d:24:c0:1c:6a:
                    f8:39:b6:de:97:d1:60:2e:20:09:3a:43:10:19:6d:
                    a6:96:8f:bf:dd:47:6e:f5:25:97:bf:7d:ba:a5:af:
                    cd:0d:a3:0a:7e:03:e3:2e:86:4a:93:b6:91:53:08:
                    76:b8:ec:a6:b8:75:3d:8b:ac:a8:ca:2f:69:ff:85:
                    f7:2a:ac:e7:1e:04:34:2f:a3:c1:ad:35:a1:35:62:
                    35:ee:7f:39:49:75:5e:57:c2:ee:17:8c:e3:0e:d5:
                    ea:e3:8a:7c:d8:39:f4:5d:0b
                Exponent: 65537 (0x10001)
        X509v3 extensions:
            X509v3 Basic Constraints: 
                CA:FALSE
            Netscape Comment: 
                OpenSSL Generated Certificate
            X509v3 Subject Key Identifier: 
                D4:E3:E4:03:CD:24:63:91:01:86:24:C1:BA:F0:B8:44:57:1D:F4:80
            X509v3 Authority Key Identifier: 
                keyid:1A:D6:BA:8D:DF:20:B2:00:AD:20:3E:C6:0F:93:D9:B0:01:7D:7E:42

    Signature Algorithm: sha1WithRSAEncryption
        7f:d2:23:ef:7d:30:50:79:ce:c8:16:73:b1:ff:38:76:15:7a:
        66:b9:71:4d:2f:77:35:31:b1:b1:01:58:c3:6c:f2:f7:82:51:
        c7:ad:48:7e:17:f1:94:db:d4:3b:20:5e:e0:92:c7:33:35:90:
        05:df:73:e5:20:12:fd:ee:d2:61:61:40:8f:72:15:43:54:b1:
        eb:c0:01:04:28:af:d6:aa:23:a5:15:10:04:34:77:4d:f9:e5:
        f3:2c:fb:39:13:eb:fa:d7:6c:f4:f5:6c:ad:a5:67:b9:b1:c8:
        ee:12:f4:44:dc:43:b9:ce:35:0f:97:d6:1f:ff:e3:9a:04:b6:
        bf:fa
-----BEGIN CERTIFICATE-----
MIIC8DCCAlmgAwIBAgIJANyzXvWQgbJ9MA0GCSqGSIb3DQEBBQUAMHUxCzAJBgNV
BAYTAkRFMQ8wDQYDVQQIDAZCZXJsaW4xDzANBgNVBAoMBlRlYWdsZTEPMA0GA1UE
AwwGVGVhZ2xlMTMwMQYJKoZIhvcNAQkBFiRrb25yYWQuY2FtcG93c2t5QGZva3Vz
LmZyYXVuaG9mZXIuZGUwHhcNMTEwODI0MTg1MjA2WhcNMTIwODIzMTg1MjA2WjCB
gTELMAkGA1UEBhMCREUxDzANBgNVBAgMBkJlcmxpbjEPMA0GA1UECgwGVGVhZ2xl
MQ0wCwYDVQQLDARjb3JlMQwwCgYDVQQDDAN0Z3cxMzAxBgkqhkiG9w0BCQEWJGtv
bnJhZC5jYW1wb3dza3lAZm9rdXMuZnJhdW5ob2Zlci5kZTCBnzANBgkqhkiG9w0B
AQEFAAOBjQAwgYkCgYEAr6JjlIkMX7fRHsR2hauqyKfe4TO2vwMBTSTAHGr4Obbe
l9FgLiAJOkMQGW2mlo+/3Udu9SWXv326pa/NDaMKfgPjLoZKk7aRUwh2uOymuHU9
i6yoyi9p/4X3KqznHgQ0L6PBrTWhNWI17n85SXVeV8LuF4zjDtXq44p82Dn0XQsC
AwEAAaN7MHkwCQYDVR0TBAIwADAsBglghkgBhvhCAQ0EHxYdT3BlblNTTCBHZW5l
cmF0ZWQgQ2VydGlmaWNhdGUwHQYDVR0OBBYEFNTj5APNJGORAYYkwbrwuERXHfSA
MB8GA1UdIwQYMBaAFBrWuo3fILIArSA+xg+T2bABfX5CMA0GCSqGSIb3DQEBBQUA
A4GBAH/SI+99MFB5zsgWc7H/OHYVema5cU0vdzUxsbEBWMNs8veCUcetSH4X8ZTb
1DsgXuCSxzM1kAXfc+UgEv3u0mFhQI9yFUNUsevAAQQor9aqI6UVEAQ0d0355fMs
+zkT6/rXbPT1bK2lZ7mxyO4S9ETcQ7nONQ+X1h//45oEtr/6
-----END CERTIFICATE-----
